Certificate:
    Data:
        Version: 1 (0x0)
        Serial Number: 4100 (0x1004)
    Signature Algorithm: sha256WithRSAEncryption
        Issuer: C=CA, ST=Ontario, L=Callander, CN=Test CA
        Validity
            Not Before: Dec  3 04:58:54 2019 GMT
            Not After : Oct 11 04:58:54 2029 GMT
        Subject: C=CA, ST=Ontario, L=Callander, CN=MQTT Server Test
        Subject Public Key Info:
            Public Key Algorithm: rsaEncryption
                Public-Key: (2048 bit)
                Modulus:
                    00:b6:1b:da:d4:16:2f:84:88:50:be:f5:ad:76:c0:
                    fa:5d:12:ca:ad:45:9c:e3:0c:f5:b2:b7:49:6f:52:
                    81:11:3e:fb:a5:1b:67:36:a5:56:d6:f0:73:54:6e:
                    2d:2c:50:d6:29:84:cc:ed:14:8c:7f:bc:24:fc:a1:
                    20:f1:18:02:fe:c2:c1:fa:b8:fc:30:f4:d0:2d:15:
                    49:4f:77:7b:a4:5a:ba:c4:d0:bf:a7:5d:ff:e6:0d:
                    7e:66:86:70:78:b4:7b:1c:01:d9:a0:64:10:25:99:
                    14:9a:97:79:98:b8:61:df:f8:f1:85:91:fa:73:50:
                    4b:06:38:91:33:46:65:36:55:78:20:9c:b6:0c:f1:
                    55:b7:bd:7a:dc:33:17:ed:78:0f:9a:7c:dc:46:1e:
                    6d:6c:77:aa:fa:c0:7e:2e:bf:4f:ad:b8:7f:74:e1:
                    b7:45:8b:da:90:cf:76:a8:3d:22:22:57:83:ec:b6:
                    ac:ea:63:3b:e0:20:bd:2a:43:a2:83:c8:99:f9:12:
                    02:fc:2a:6e:6a:08:2d:bc:16:4c:7c:6b:33:65:cc:
                    06:0c:d1:9e:3d:cc:9b:f6:35:2c:87:ff:b9:04:b7:
                    77:df:3a:d1:14:2a:36:80:cb:90:bb:b4:52:9a:b8:
                    05:92:3d:df:55:1d:1d:c8:ac:ef:10:30:43:63:92:
                    f8:e7
                Exponent: 65537 (0x10001)
    Signature Algorithm: sha256WithRSAEncryption
         32:1a:42:eb:f0:c2:95:1b:4f:a6:4c:64:d6:bb:c0:11:62:c1:
         23:ce:04:24:f5:6f:64:8f:b2:c4:42:39:64:6f:08:cb:31:66:
         17:21:c5:dd:30:4a:a9:dc:ce:c6:73:c5:f5:e3:0c:49:0f:6a:
         47:a3:02:c6:c9:47:63:b2:43:0d:61:0f:44:12:17:14:24:62:
         4d:16:28:bf:e8:41:d4:7a:09:89:72:89:78:b8:7a:48:ce:58:
         bc:00:13:43:17:bb:f7:f1:e3:ea:a4:28:21:d8:c0:dc:3f:e1:
         7f:4b:3e:bc:7b:ee:e0:f4:62:7b:d7:0f:ef:7d:20:c3:06:2d:
         ef:25:a0:28:9c:1a:32:10:b6:92:8e:b4:cf:e8:d8:9a:ae:bf:
         ae:56:39:b9:ac:62:7e:b6:ca:9e:29:3e:a0:d3:3a:5b:69:40:
         ae:e9:5c:72:83:4c:e6:dd:3e:1d:67:6b:f3:2a:b1:a4:45:32:
         f8:1a:f4:a6:21:4f:7c:c5:24:e3:c2:45:90:fa:80:03:72:7c:
         1a:78:9a:e3:18:5d:a8:c7:3e:a2:56:d7:51:bd:e7:f2:90:c0:
         9f:9c:0d:8c:28:df:03:35:e2:da:23:c0:ed:e0:10:04:e1:db:
         8a:b4:83:23:5b:5b:d4:ba:c1:2a:8c:9f:0a:20:53:87:91:71:
         29:bb:43:c4
-----BEGIN CERTIFICATE-----
MIIDCDCCAfACAhAEMA0GCSqGSIb3DQEBCwUAMEUxCzAJBgNVBAYTAkNBMRAwDgYD
VQQIDAdPbnRhcmlvMRIwEAYDVQQHDAlDYWxsYW5kZXIxEDAOBgNVBAMMB1Rlc3Qg
Q0EwHhcNMTkxMjAzMDQ1ODU0WhcNMjkxMDExMDQ1ODU0WjBOMQswCQYDVQQGEwJD
QTEQMA4GA1UECAwHT250YXJpbzESMBAGA1UEBwwJQ2FsbGFuZGVyMRkwFwYDVQQD
DBBNUVRUIFNlcnZlciBUZXN0MIIBIjANBgkqhkiG9w0BAQEFAAOCAQ8AMIIBCgKC
AQEAthva1BYvhIhQvvWtdsD6XRLKrUWc4wz1srdJb1KBET77pRtnNqVW1vBzVG4t
LFDWKYTM7RSMf7wk/KEg8RgC/sLB+rj8MPTQLRVJT3d7pFq6xNC/p13/5g1+ZoZw
eLR7HAHZoGQQJZkUmpd5mLhh3/jxhZH6c1BLBjiRM0ZlNlV4IJy2DPFVt7163DMX
7XgPmnzcRh5tbHeq+sB+Lr9Prbh/dOG3RYvakM92qD0iIleD7Las6mM74CC9KkOi
g8iZ+RIC/CpuaggtvBZMfGszZcwGDNGePcyb9jUsh/+5BLd33zrRFCo2gMuQu7RS
mrgFkj3fVR0dyKzvEDBDY5L45wIDAQABMA0GCSqGSIb3DQEBCwUAA4IBAQAyGkLr
8MKVG0+mTGTWu8ARYsEjzgQk9W9kj7LEQjlkbwjLMWYXIcXdMEqp3M7Gc8X14wxJ
D2pHowLGyUdjskMNYQ9EEhcUJGJNFii/6EHUegmJcol4uHpIzli8ABNDF7v38ePq
pCgh2MDcP+F/Sz68e+7g9GJ71w/vfSDDBi3vJaAonBoyELaSjrTP6Niarr+uVjm5
rGJ+tsqeKT6g0zpbaUCu6Vxyg0zm3T4dZ2vzKrGkRTL4GvSmIU98xSTjwkWQ+oAD
cnwaeJrjGF2oxz6iVtdRvefykMCfnA2MKN8DNeLaI8Dt4BAE4duKtIMjW1vUusEq
jJ8KIFOHkXEpu0PE
-----END CERTIFICATE-----
